Certificate:
    Data:
        Version: 3 (0x2)
        Serial Number: 9 (0x9)
    Signature Algorithm: sha256WithRSAEncryption
        Issuer: C=US, ST=Maryland, L=Baltimore, O=Test CA, Limited, OU=Server Research Department, CN=Test CA/emailAddress=test@example.com
        Validity
            Not Before: Jan  9 03:54:45 2019 GMT
            Not After : Oct  5 03:54:45 2021 GMT
        Subject: C=US, ST=MD, L=Baltimore, O=Test Server, Limited, CN=Test Server
        Subject Public Key Info:
            Public Key Algorithm: rsaEncryption
                Public-Key: (2048 bit)
                Modulus:
                    00:9b:4c:ba:4b:59:42:85:2f:e0:f8:c4:40:7a:16:
                    4f:d1:1c:17:9a:22:84:e6:11:7a:7e:78:4a:a3:47:
                    c4:c8:a6:20:0a:eb:0b:9e:90:ef:76:ec:57:42:22:
                    b5:f5:b2:55:9c:f8:2f:00:6a:0b:6c:7f:be:87:e4:
                    4c:86:90:97:e2:92:14:54:29:35:88:10:52:6a:e4:
                    c3:d4:f3:67:19:85:b0:d5:1d:c3:f3:0c:81:69:67:
                    ec:04:9f:dc:58:5a:64:90:f1:1c:ce:64:ba:b8:9e:
                    7e:78:28:34:53:22:f0:e4:6c:b5:b8:44:8f:bf:6a:
                    27:b9:de:83:30:56:bb:f6:25:64:2f:98:3b:1d:30:
                    ce:0b:e7:32:26:f0:18:a8:d1:00:90:d2:59:ef:04:
                    83:c9:71:ec:e8:7d:b8:f8:d2:d2:65:e8:ee:0c:e5:
                    a5:6f:e5:7b:10:e3:4a:d4:19:8f:6f:7f:5d:e8:90:
                    d4:ba:5c:65:4e:3b:7f:57:35:40:5d:0f:5b:38:f9:
                    62:95:b1:d5:c2:dc:37:b8:8b:bd:45:72:d7:88:a9:
                    ee:03:06:7f:81:7e:60:39:45:19:69:a5:b1:90:36:
                    4e:75:4c:09:77:74:b0:79:28:fe:d8:77:74:46:31:
                    2a:66:1b:5b:d6:45:8b:96:c2:3e:11:ea:a8:2a:21:
                    5e:03
                Exponent: 65537 (0x10001)
        X509v3 extensions:
            X509v3 Subject Key Identifier: 
                E0:CB:0A:D3:6E:7B:29:0C:C2:82:16:81:60:04:87:DF:1C:C8:D9:1E
            X509v3 Authority Key Identifier: 
                keyid:7B:95:D0:08:70:8D:C5:03:BE:55:1D:5E:89:E6:3D:29:55:29:D4:8F

            X509v3 Basic Constraints: 
                CA:FALSE
            X509v3 Key Usage: 
                Digital Signature, Key Encipherment
            X509v3 Subject Alternative Name: 
                DNS:example.com, DNS:www.example.com, DNS:mail.example.com, DNS:ftp.example.com
            Netscape Comment: 
                OpenSSL Generated Certificate
    Signature Algorithm: sha256WithRSAEncryption
         60:47:60:4c:7d:df:43:a7:ec:20:20:da:72:2b:46:3b:2c:2c:
         1e:00:a7:a1:08:1e:21:a1:4b:ef:56:f1:d5:3e:bc:24:2c:54:
         f3:93:87:3f:d1:e0:9e:32:68:84:66:67:d0:58:41:87:41:0f:
         2b:ca:2d:c4:21:03:27:4c:ac:15:30:df:e6:04:f1:8d:15:b5:
         8d:1b:5a:79:da:eb:6e:59:e4:5b:5e:33:6c:4c:4e:96:f6:9d:
         13:93:e7:56:31:61:72:49:84:1e:e6:c2:35:1b:1f:06:9a:75:
         bf:6f:40:a3:b4:a2:a1:33:6c:29:75:8f:59:69:9b:d9:a9:e4:
         11:40:95:32:ba:b7:ac:88:44:f4:12:4c:e0:91:e3:e0:61:e8:
         8e:ee:2a:d1:fe:6b:b0:54:9f:9d:92:be:b3:5d:31:00:a9:af:
         f5:1b:2f:ff:81:0c:3e:e3:89:2e:fc:4f:48:da:3a:42:aa:f9:
         82:74:e3:fc:d4:7b:10:7b:48:37:d0:71:c5:8f:0a:ab:fb:30:
         58:7d:fd:8c:0c:94:60:44:2f:b6:2d:f7:16:48:f6:bd:20:b0:
         13:ec:bf:55:08:52:23:0f:9c:ac:bc:7a:af:5a:3f:9e:f7:3a:
         b6:20:53:29:da:aa:84:91:ad:3f:81:df:52:05:7b:1a:7b:73:
         44:c0:72:d6:56:6d:e0:74:6a:ca:d4:4b:c3:25:73:e7:67:60:
         9a:fe:bb:cc:b2:c8:1b:d8:37:0c:00:d5:fd:c7:89:c0:97:88:
         c8:70:b9:49:98:df:fc:f0:b9:3b:74:e9:6a:33:33:46:b0:4f:
         64:15:af:9b:22:04:1c:5b:07:a4:f2:fd:d2:90:46:74:b1:0f:
         bf:35:f2:7b:74:d2:36:f4:68:04:6d:46:3b:33:aa:b3:b8:e8:
         13:a6:bd:99:2e:39:a9:99:84:51:96:ae:22:f6:04:8a:29:4a:
         78:42:0f:f6:a2:1a:28:75:67:0b:0c:bc:9f:98:77:d8:48:d0:
         67:b6:df:08:c6:6d:b5:30:e0:94:f7:71:dd:c4:ae:e9:1c:71:
         77:fc:26:b4:97:a8:46:57:6e:cf:cc:be:77:91:5e:1f:66:fa:
         32:e5:87:52:b6:2d:08:6e:ea:f8:8a:58:e4:ae:16:17:b2:1e:
         0d:d7:fd:05:dc:6f:de:4f:85:e5:cf:8c:ce:29:fc:7a:ee:f0:
         8a:cf:d8:2f:77:ad:87:c6:a4:9e:af:27:03:08:37:81:49:b3:
         81:f9:4b:65:57:a2:f4:3f:6e:4a:fc:1a:6a:0c:9c:6b:d3:b2:
         86:36:e3:7e:f9:88:ed:5a:43:c0:1e:66:57:5b:b9:c8:8e:9e:
         71:33:87:fe:7b:ae:a2:56
-----BEGIN CERTIFICATE-----
MIIFXDCCA0SgAwIBAgIBCTANBgkqhkiG9w0BAQsFADCBpzELMAkGA1UEBhMCVVMx
ETAPBgNVBAgMCE1hcnlsYW5kMRIwEAYDVQQHDAlCYWx0aW1vcmUxGTAXBgNVBAoM
EFRlc3QgQ0EsIExpbWl0ZWQxIzAhBgNVBAsMGlNlcnZlciBSZXNlYXJjaCBEZXBh
cnRtZW50MRAwDgYDVQQDDAdUZXN0IENBMR8wHQYJKoZIhvcNAQkBFhB0ZXN0QGV4
YW1wbGUuY29tMB4XDTE5MDEwOTAzNTQ0NVoXDTIxMTAwNTAzNTQ0NVowYzELMAkG
A1UEBhMCVVMxCzAJBgNVBAgMAk1EMRIwEAYDVQQHDAlCYWx0aW1vcmUxHTAbBgNV
BAoMFFRlc3QgU2VydmVyLCBMaW1pdGVkMRQwEgYDVQQDDAtUZXN0IFNlcnZlcjCC
ASIwDQYJKoZIhvcNAQEBBQADggEPADCCAQoCggEBAJtMuktZQoUv4PjEQHoWT9Ec
F5oihOYRen54SqNHxMimIArrC56Q73bsV0IitfWyVZz4LwBqC2x/vofkTIaQl+KS
FFQpNYgQUmrkw9TzZxmFsNUdw/MMgWln7ASf3FhaZJDxHM5kuriefngoNFMi8ORs
tbhEj79qJ7negzBWu/YlZC+YOx0wzgvnMibwGKjRAJDSWe8Eg8lx7Oh9uPjS0mXo
7gzlpW/lexDjStQZj29/XeiQ1LpcZU47f1c1QF0PWzj5YpWx1cLcN7iLvUVy14ip
7gMGf4F+YDlFGWmlsZA2TnVMCXd0sHko/th3dEYxKmYbW9ZFi5bCPhHqqCohXgMC
AwEAAaOB1TCB0jAdBgNVHQ4EFgQU4MsK0257KQzCghaBYASH3xzI2R4wHwYDVR0j
BBgwFoAUe5XQCHCNxQO+VR1eieY9KVUp1I8wCQYDVR0TBAIwADALBgNVHQ8EBAMC
BaAwSgYDVR0RBEMwQYILZXhhbXBsZS5jb22CD3d3dy5leGFtcGxlLmNvbYIQbWFp
bC5leGFtcGxlLmNvbYIPZnRwLmV4YW1wbGUuY29tMCwGCWCGSAGG+EIBDQQfFh1P
cGVuU1NMIEdlbmVyYXRlZCBDZXJ0aWZpY2F0ZTANBgkqhkiG9w0BAQsFAAOCAgEA
YEdgTH3fQ6fsICDacitGOywsHgCnoQgeIaFL71bx1T68JCxU85OHP9HgnjJohGZn
0FhBh0EPK8otxCEDJ0ysFTDf5gTxjRW1jRtaedrrblnkW14zbExOlvadE5PnVjFh
ckmEHubCNRsfBpp1v29Ao7SioTNsKXWPWWmb2ankEUCVMrq3rIhE9BJM4JHj4GHo
ju4q0f5rsFSfnZK+s10xAKmv9Rsv/4EMPuOJLvxPSNo6Qqr5gnTj/NR7EHtIN9Bx
xY8Kq/swWH39jAyUYEQvti33Fkj2vSCwE+y/VQhSIw+crLx6r1o/nvc6tiBTKdqq
hJGtP4HfUgV7GntzRMBy1lZt4HRqytRLwyVz52dgmv67zLLIG9g3DADV/ceJwJeI
yHC5SZjf/PC5O3TpajMzRrBPZBWvmyIEHFsHpPL90pBGdLEPvzXye3TSNvRoBG1G
OzOqs7joE6a9mS45qZmEUZauIvYEiilKeEIP9qIaKHVnCwy8n5h32EjQZ7bfCMZt
tTDglPdx3cSu6Rxxd/wmtJeoRlduz8y+d5FeH2b6MuWHUrYtCG7q+IpY5K4WF7Ie
Ddf9Bdxv3k+F5c+Mzin8eu7wis/YL3eth8aknq8nAwg3gUmzgflLZVei9D9uSvwa
agyca9OyhjbjfvmI7VpDwB5mV1u5yI6ecTOH/nuuolY=
-----END CERTIFICATE-----
