Certificate:
    Data:
        Version: 3 (0x2)
        Serial Number: 8 (0x8)
    Signature Algorithm: sha256WithRSAEncryption
        Issuer: C=US, ST=Maryland, L=Baltimore, O=Test CA, Limited, OU=Server Research Department, CN=Test CA/emailAddress=test@example.com
        Validity
            Not Before: Jan  9 03:52:44 2019 GMT
            Not After : Oct  5 03:52:44 2021 GMT
        Subject: C=US, ST=MD, L=Baltimore, O=Test Server, Limited, CN=Test Server
        Subject Public Key Info:
            Public Key Algorithm: rsaEncryption
                Public-Key: (2048 bit)
                Modulus:
                    00:a6:a5:9d:ce:fd:13:af:6d:3c:8c:50:82:99:e5:
                    9c:be:a2:00:46:30:ad:61:c8:fb:dd:64:1d:c3:8e:
                    21:61:42:80:22:80:16:05:a3:9c:89:35:c2:4e:bc:
                    17:49:8f:22:09:92:54:55:e7:97:01:01:7a:e3:6e:
                    93:8c:d8:32:a2:3a:08:b8:e0:41:af:4e:c1:50:2c:
                    08:c0:89:e7:74:de:09:03:c9:53:d1:15:dc:b2:01:
                    fa:02:00:f2:a3:ef:41:99:ff:da:72:6e:d5:22:4d:
                    0b:66:62:a3:0c:5d:9c:97:9f:c4:e0:16:04:75:89:
                    d8:6e:28:ff:04:9f:46:1a:f0:3e:b7:25:68:ec:72:
                    0d:df:f9:c6:cc:76:66:1f:f4:e8:0b:8d:42:65:be:
                    75:ae:f4:5b:c3:39:77:4a:d5:44:f0:7f:38:7c:86:
                    3b:09:76:92:55:33:c9:6d:1c:70:6e:fc:37:3d:ea:
                    61:c6:fc:17:a8:10:75:ae:94:9e:66:03:47:49:6c:
                    c1:e6:24:65:d2:36:64:f8:9d:2c:85:3b:d6:ad:16:
                    41:e9:ee:79:c0:44:03:c8:44:01:9d:45:e6:47:24:
                    5d:c8:e3:5f:96:33:77:e0:9a:ff:bf:1c:df:fe:76:
                    17:64:c8:21:1c:59:92:1b:80:81:7c:46:02:38:2e:
                    97:5d
                Exponent: 65537 (0x10001)
        X509v3 extensions:
            X509v3 Subject Key Identifier: 
                DE:A9:2A:FC:1B:97:26:E8:33:54:D7:39:44:54:EB:8C:7D:46:6F:D1
            X509v3 Authority Key Identifier: 
                keyid:7B:95:D0:08:70:8D:C5:03:BE:55:1D:5E:89:E6:3D:29:55:29:D4:8F

            X509v3 Basic Constraints: 
                CA:FALSE
            X509v3 Key Usage: 
                Digital Signature, Key Encipherment
            X509v3 Subject Alternative Name: 
                DNS:example.com, DNS:www.example.com, DNS:mail.example.com, DNS:ftp.example.com
            Netscape Comment: 
                OpenSSL Generated Certificate
    Signature Algorithm: sha256WithRSAEncryption
         7a:92:48:65:a7:55:ab:b2:ad:7d:e3:ce:5b:c6:0e:ea:04:86:
         7f:45:9e:d2:b1:c8:41:f9:53:88:cc:08:29:e0:a0:2d:b3:8e:
         4f:56:6f:e0:ca:fa:52:0f:73:0a:09:5b:4c:fb:7f:35:bf:a9:
         49:cb:da:81:0d:2e:cd:e0:a8:ba:7e:e7:16:22:28:2f:2e:3e:
         17:a5:e5:30:10:45:cd:c9:b5:6d:c4:79:ba:ef:7e:29:d2:89:
         04:c4:80:fd:11:21:af:63:87:e6:e7:d6:b8:cb:f1:30:d1:81:
         ae:f5:4e:24:2f:49:f2:b4:65:8e:f3:b4:7a:70:8a:7b:b1:7c:
         5d:f1:15:a9:3a:d3:d3:43:60:b8:b7:3b:d5:30:6a:ca:c2:3f:
         21:1a:d2:b8:94:46:aa:fb:48:30:00:c0:6d:dd:9d:db:a9:9c:
         71:e0:cb:78:e9:a1:a7:06:06:f1:1a:d6:5a:56:4f:f4:a0:85:
         a6:c3:d3:bf:1b:ef:5d:98:34:1a:ed:7f:22:e2:70:e0:93:8c:
         64:ac:08:a7:f7:13:83:b7:93:23:d4:95:9a:4d:8b:2f:af:9d:
         5c:cb:1b:c8:fa:f5:97:56:7a:aa:20:b7:8a:04:1d:42:05:c5:
         e5:4d:e6:f6:02:ae:22:7f:a2:4a:d5:17:4a:12:b9:31:60:9e:
         2e:8e:f3:fc:f2:32:eb:a5:65:dc:02:0b:df:65:ff:24:2b:9e:
         a2:c2:e4:ec:20:cd:9d:90:43:d6:ca:4e:a5:3a:1f:f0:64:47:
         71:2d:e4:f6:a3:6c:9e:34:93:52:90:f7:38:e3:f9:7d:7c:77:
         3e:aa:63:0f:5d:33:30:c7:9d:60:74:6e:f9:41:ad:b6:a3:bd:
         e3:ed:91:30:82:03:3d:7c:17:ee:68:51:ac:b8:f9:c3:d2:44:
         d8:41:9b:a4:5e:a8:07:8c:e0:6a:85:39:67:f6:fc:8b:d7:ec:
         0e:04:8f:4e:09:26:8a:e7:40:6d:5d:75:22:bb:d6:43:cc:b5:
         8a:e0:94:0a:6a:ce:1d:ff:89:f4:03:cb:5b:8a:51:4a:3a:97:
         f8:94:1e:d1:a4:c8:17:e9:65:7b:9a:81:f7:06:84:9b:20:95:
         21:c4:d6:34:0d:3b:4e:52:25:e2:bf:7e:d4:ad:59:3a:0f:4b:
         4b:4b:00:b5:d6:15:49:2b:9e:d1:e4:45:ea:cc:40:62:48:db:
         18:d0:7a:d9:a2:f6:44:f9:c0:93:58:43:14:79:98:1f:e6:03:
         32:b6:bc:b2:8c:3b:b7:e9:e7:3f:08:89:cc:52:18:5c:35:e8:
         83:ad:54:ca:6b:23:c0:91:fb:db:74:0d:2b:74:2f:5a:7c:27:
         56:58:a4:25:b7:27:12:20
-----BEGIN CERTIFICATE-----
MIIFXDCCA0SgAwIBAgIBCDANBgkqhkiG9w0BAQsFADCBpzELMAkGA1UEBhMCVVMx
ETAPBgNVBAgMCE1hcnlsYW5kMRIwEAYDVQQHDAlCYWx0aW1vcmUxGTAXBgNVBAoM
EFRlc3QgQ0EsIExpbWl0ZWQxIzAhBgNVBAsMGlNlcnZlciBSZXNlYXJjaCBEZXBh
cnRtZW50MRAwDgYDVQQDDAdUZXN0IENBMR8wHQYJKoZIhvcNAQkBFhB0ZXN0QGV4
YW1wbGUuY29tMB4XDTE5MDEwOTAzNTI0NFoXDTIxMTAwNTAzNTI0NFowYzELMAkG
A1UEBhMCVVMxCzAJBgNVBAgMAk1EMRIwEAYDVQQHDAlCYWx0aW1vcmUxHTAbBgNV
BAoMFFRlc3QgU2VydmVyLCBMaW1pdGVkMRQwEgYDVQQDDAtUZXN0IFNlcnZlcjCC
ASIwDQYJKoZIhvcNAQEBBQADggEPADCCAQoCggEBAKalnc79E69tPIxQgpnlnL6i
AEYwrWHI+91kHcOOIWFCgCKAFgWjnIk1wk68F0mPIgmSVFXnlwEBeuNuk4zYMqI6
CLjgQa9OwVAsCMCJ53TeCQPJU9EV3LIB+gIA8qPvQZn/2nJu1SJNC2ZiowxdnJef
xOAWBHWJ2G4o/wSfRhrwPrclaOxyDd/5xsx2Zh/06AuNQmW+da70W8M5d0rVRPB/
OHyGOwl2klUzyW0ccG78Nz3qYcb8F6gQda6UnmYDR0lsweYkZdI2ZPidLIU71q0W
QenuecBEA8hEAZ1F5kckXcjjX5Yzd+Ca/78c3/52F2TIIRxZkhuAgXxGAjgul10C
AwEAAaOB1TCB0jAdBgNVHQ4EFgQU3qkq/BuXJugzVNc5RFTrjH1Gb9EwHwYDVR0j
BBgwFoAUe5XQCHCNxQO+VR1eieY9KVUp1I8wCQYDVR0TBAIwADALBgNVHQ8EBAMC
BaAwSgYDVR0RBEMwQYILZXhhbXBsZS5jb22CD3d3dy5leGFtcGxlLmNvbYIQbWFp
bC5leGFtcGxlLmNvbYIPZnRwLmV4YW1wbGUuY29tMCwGCWCGSAGG+EIBDQQfFh1P
cGVuU1NMIEdlbmVyYXRlZCBDZXJ0aWZpY2F0ZTANBgkqhkiG9w0BAQsFAAOCAgEA
epJIZadVq7KtfePOW8YO6gSGf0We0rHIQflTiMwIKeCgLbOOT1Zv4Mr6Ug9zCglb
TPt/Nb+pScvagQ0uzeCoun7nFiIoLy4+F6XlMBBFzcm1bcR5uu9+KdKJBMSA/REh
r2OH5ufWuMvxMNGBrvVOJC9J8rRljvO0enCKe7F8XfEVqTrT00NguLc71TBqysI/
IRrSuJRGqvtIMADAbd2d26mcceDLeOmhpwYG8RrWWlZP9KCFpsPTvxvvXZg0Gu1/
IuJw4JOMZKwIp/cTg7eTI9SVmk2LL6+dXMsbyPr1l1Z6qiC3igQdQgXF5U3m9gKu
In+iStUXShK5MWCeLo7z/PIy66Vl3AIL32X/JCueosLk7CDNnZBD1spOpTof8GRH
cS3k9qNsnjSTUpD3OOP5fXx3PqpjD10zMMedYHRu+UGttqO94+2RMIIDPXwX7mhR
rLj5w9JE2EGbpF6oB4zgaoU5Z/b8i9fsDgSPTgkmiudAbV11IrvWQ8y1iuCUCmrO
Hf+J9APLW4pRSjqX+JQe0aTIF+lle5qB9waEmyCVIcTWNA07TlIl4r9+1K1ZOg9L
S0sAtdYVSSue0eRF6sxAYkjbGNB62aL2RPnAk1hDFHmYH+YDMra8sow7t+nnPwiJ
zFIYXDXog61UymsjwJH723QNK3QvWnwnVlikJbcnEiA=
-----END CERTIFICATE-----
