Certificate:
    Data:
        Version: 3 (0x2)
        Serial Number: 7 (0x7)
    Signature Algorithm: sha256WithRSAEncryption
        Issuer: C=US, ST=Maryland, L=Baltimore, O=Test CA, Limited, OU=Server Research Department, CN=Test CA/emailAddress=test@example.com
        Validity
            Not Before: Jan  9 03:49:55 2019 GMT
            Not After : Oct  5 03:49:55 2021 GMT
        Subject: C=US, ST=MD, L=Baltimore, O=Test Server, Limited, CN=Test Server
        Subject Public Key Info:
            Public Key Algorithm: rsaEncryption
                Public-Key: (2048 bit)
                Modulus:
                    00:c1:e9:3e:78:ab:50:57:56:96:fb:30:51:c0:3f:
                    9e:b6:35:29:5b:95:77:ee:a4:ee:75:1c:b7:90:d9:
                    08:dd:f5:bf:4c:74:65:9a:df:82:fb:94:23:ba:ba:
                    e7:48:e0:00:54:95:80:b9:3e:9d:fb:05:95:ce:fe:
                    67:ca:76:3c:55:35:1a:f7:86:74:4e:84:12:67:89:
                    df:41:99:68:62:b2:93:65:e1:76:63:38:2a:37:8f:
                    2a:50:fa:e9:27:58:0b:ed:7d:79:85:5b:d6:1d:3b:
                    51:1f:51:a0:78:f6:fa:49:40:9e:7e:88:1f:22:68:
                    11:79:3d:fa:58:aa:8a:a3:a7:08:84:18:51:ea:3c:
                    89:6c:e7:3a:f1:9f:f9:47:23:7e:86:9b:75:62:2e:
                    1f:55:e4:bf:19:c3:7c:63:11:78:68:62:88:d3:f0:
                    26:f9:30:a9:07:c7:fc:71:ce:ee:77:c8:8b:d6:89:
                    0c:dc:29:06:1a:7c:bc:b8:03:4a:81:4c:d7:b9:66:
                    b0:4f:cc:5b:0c:be:9b:9e:65:6e:f5:21:09:fe:49:
                    ec:d8:6a:55:8b:da:62:af:7c:25:7c:f7:8d:89:d7:
                    47:f8:61:3a:5b:b8:1c:de:61:49:46:ed:ee:8f:ac:
                    8b:64:fc:ae:f2:08:af:7f:19:3a:cf:8b:d6:4d:9a:
                    25:6b
                Exponent: 65537 (0x10001)
        X509v3 extensions:
            X509v3 Subject Key Identifier: 
                37:E9:9D:4E:7A:B7:B7:99:B2:65:96:A6:27:D2:0B:5A:81:1A:09:03
            X509v3 Authority Key Identifier: 
                keyid:7B:95:D0:08:70:8D:C5:03:BE:55:1D:5E:89:E6:3D:29:55:29:D4:8F

            X509v3 Basic Constraints: 
                CA:FALSE
            X509v3 Key Usage: 
                Digital Signature, Key Encipherment
            X509v3 Subject Alternative Name: 
                DNS:example.com, DNS:www.example.com, DNS:mail.example.com, DNS:ftp.example.com
            Netscape Comment: 
                OpenSSL Generated Certificate
    Signature Algorithm: sha256WithRSAEncryption
         60:f9:82:1a:81:33:32:77:05:f4:59:33:e7:45:e4:cd:8c:86:
         ae:5d:33:23:ff:7f:14:75:fe:9c:94:64:fb:ca:c7:e7:18:b7:
         9c:25:ff:30:0d:a7:cd:c2:46:87:41:49:7a:c3:74:85:46:43:
         79:62:d8:52:24:cb:ac:85:2d:1b:09:6e:cc:1e:37:54:1f:ab:
         55:5f:63:87:4a:0f:25:e5:2f:c6:f2:f8:8f:1b:04:39:aa:49:
         02:1c:bd:e3:fd:ac:c4:24:6c:9a:63:f2:bb:46:22:6f:3f:5d:
         8a:62:0f:78:84:aa:62:70:4d:6d:50:8d:b4:65:30:f9:27:6c:
         d6:e2:af:b5:4e:84:f0:54:f5:dc:d4:3a:52:4a:c9:0d:82:f8:
         98:77:11:48:23:17:f3:a9:57:d6:32:06:bb:9c:ce:6b:56:41:
         b7:7c:31:dd:a1:56:91:79:d5:3e:71:a4:f5:84:7e:28:54:d8:
         c7:6a:7b:b2:cd:1f:4b:8b:eb:ac:77:f5:e3:81:58:f4:c6:35:
         52:52:78:ef:9f:a2:e0:24:af:1c:05:d6:85:c3:6d:2a:80:a2:
         24:3c:3c:d1:e9:fa:16:16:25:5c:06:4b:46:99:0b:7e:21:77:
         b0:8b:7d:dc:74:cf:62:3c:21:c4:10:98:2a:e7:4a:fa:e5:5b:
         85:03:3f:8b:0f:55:75:1e:71:04:2e:00:6d:a8:01:af:f2:6a:
         d2:96:82:d2:f2:30:16:ef:d5:03:cc:42:c6:ee:05:45:3b:18:
         f0:06:c7:01:16:48:7b:a9:77:ad:a0:63:b1:08:35:cf:97:8a:
         6b:f5:b6:44:a7:44:f6:ae:5e:0d:f6:74:7f:80:12:c2:1d:3b:
         a4:8a:cb:1c:45:a9:62:f6:ca:e5:2a:5b:d7:a1:6c:51:e1:7c:
         6a:33:dc:bb:aa:0d:b6:53:94:c0:88:55:ce:17:e8:bf:ff:f2:
         6e:f7:71:82:bc:58:65:f3:af:76:29:73:c3:67:a1:3c:8f:88:
         f0:52:27:61:55:4a:32:bd:98:c4:20:f6:83:99:8a:77:14:2b:
         eb:18:08:a6:e9:5a:6c:f9:a6:2a:ce:76:42:81:7c:3c:e1:82:
         74:2d:2e:52:c5:60:41:40:8c:9b:10:53:8e:c1:1b:18:16:bb:
         db:37:ca:60:26:49:f4:81:73:e6:d8:a6:bf:3f:d9:3f:3d:7b:
         f7:c2:26:ad:65:ff:d4:be:47:ec:a7:7a:13:89:74:b5:78:95:
         8f:e9:14:bc:d1:a7:96:5f:a1:f7:31:dc:19:b2:3a:ae:43:88:
         7a:67:a6:94:47:5e:f1:07:e8:1e:a3:4f:62:5d:df:ef:38:4d:
         28:e8:53:7a:86:19:55:05
-----BEGIN CERTIFICATE-----
MIIFXDCCA0SgAwIBAgIBBzANBgkqhkiG9w0BAQsFADCBpzELMAkGA1UEBhMCVVMx
ETAPBgNVBAgMCE1hcnlsYW5kMRIwEAYDVQQHDAlCYWx0aW1vcmUxGTAXBgNVBAoM
EFRlc3QgQ0EsIExpbWl0ZWQxIzAhBgNVBAsMGlNlcnZlciBSZXNlYXJjaCBEZXBh
cnRtZW50MRAwDgYDVQQDDAdUZXN0IENBMR8wHQYJKoZIhvcNAQkBFhB0ZXN0QGV4
YW1wbGUuY29tMB4XDTE5MDEwOTAzNDk1NVoXDTIxMTAwNTAzNDk1NVowYzELMAkG
A1UEBhMCVVMxCzAJBgNVBAgMAk1EMRIwEAYDVQQHDAlCYWx0aW1vcmUxHTAbBgNV
BAoMFFRlc3QgU2VydmVyLCBMaW1pdGVkMRQwEgYDVQQDDAtUZXN0IFNlcnZlcjCC
ASIwDQYJKoZIhvcNAQEBBQADggEPADCCAQoCggEBAMHpPnirUFdWlvswUcA/nrY1
KVuVd+6k7nUct5DZCN31v0x0ZZrfgvuUI7q650jgAFSVgLk+nfsFlc7+Z8p2PFU1
GveGdE6EEmeJ30GZaGKyk2XhdmM4KjePKlD66SdYC+19eYVb1h07UR9RoHj2+klA
nn6IHyJoEXk9+liqiqOnCIQYUeo8iWznOvGf+UcjfoabdWIuH1XkvxnDfGMReGhi
iNPwJvkwqQfH/HHO7nfIi9aJDNwpBhp8vLgDSoFM17lmsE/MWwy+m55lbvUhCf5J
7NhqVYvaYq98JXz3jYnXR/hhOlu4HN5hSUbt7o+si2T8rvIIr38ZOs+L1k2aJWsC
AwEAAaOB1TCB0jAdBgNVHQ4EFgQUN+mdTnq3t5myZZamJ9ILWoEaCQMwHwYDVR0j
BBgwFoAUe5XQCHCNxQO+VR1eieY9KVUp1I8wCQYDVR0TBAIwADALBgNVHQ8EBAMC
BaAwSgYDVR0RBEMwQYILZXhhbXBsZS5jb22CD3d3dy5leGFtcGxlLmNvbYIQbWFp
bC5leGFtcGxlLmNvbYIPZnRwLmV4YW1wbGUuY29tMCwGCWCGSAGG+EIBDQQfFh1P
cGVuU1NMIEdlbmVyYXRlZCBDZXJ0aWZpY2F0ZTANBgkqhkiG9w0BAQsFAAOCAgEA
YPmCGoEzMncF9Fkz50XkzYyGrl0zI/9/FHX+nJRk+8rH5xi3nCX/MA2nzcJGh0FJ
esN0hUZDeWLYUiTLrIUtGwluzB43VB+rVV9jh0oPJeUvxvL4jxsEOapJAhy94/2s
xCRsmmPyu0Yibz9dimIPeISqYnBNbVCNtGUw+Sds1uKvtU6E8FT13NQ6UkrJDYL4
mHcRSCMX86lX1jIGu5zOa1ZBt3wx3aFWkXnVPnGk9YR+KFTYx2p7ss0fS4vrrHf1
44FY9MY1UlJ475+i4CSvHAXWhcNtKoCiJDw80en6FhYlXAZLRpkLfiF3sIt93HTP
YjwhxBCYKudK+uVbhQM/iw9VdR5xBC4AbagBr/Jq0paC0vIwFu/VA8xCxu4FRTsY
8AbHARZIe6l3raBjsQg1z5eKa/W2RKdE9q5eDfZ0f4ASwh07pIrLHEWpYvbK5Spb
16FsUeF8ajPcu6oNtlOUwIhVzhfov//ybvdxgrxYZfOvdilzw2ehPI+I8FInYVVK
Mr2YxCD2g5mKdxQr6xgIpulabPmmKs52QoF8POGCdC0uUsVgQUCMmxBTjsEbGBa7
2zfKYCZJ9IFz5timvz/ZPz1798ImrWX/1L5H7Kd6E4l0tXiVj+kUvNGnll+h9zHc
GbI6rkOIememlEde8QfoHqNPYl3f7zhNKOhTeoYZVQU=
-----END CERTIFICATE-----
